target datalayout = "e-m:e-p270:32:32-p271:32:32-p272:64:64-i64:64-i128:128-f80:128-n8:16:32:64-S128"
target triple = "x86_64-pc-linux-gnu"

%struct.strbuf = type { i64, i64, ptr }
%struct.object_id = type { [32 x i8], i32 }
%struct.command = type { ptr, ptr, ptr, ptr, i8, i32, %struct.object_id, %struct.object_id, [0 x i8] }
%struct.ref_push_report = type { ptr, ptr, ptr, i8, ptr }
%struct.receive_hook_feed_state = type { ptr, ptr, i32, %struct.strbuf, ptr }

@strbuf_slopbuf = external global [0 x i8], align 1
@.str.115 = private unnamed_addr constant [11 x i8] c"./strbuf.h\00", align 1
@.str.116 = private unnamed_addr constant [30 x i8] c"strbuf_setlen() beyond buffer\00", align 1
@.str.216 = private unnamed_addr constant [10 x i8] c"%s %s %s\0A\00", align 1

; Function Attrs: inlinehint nounwind uwtable
define internal void @strbuf_setlen(ptr noundef %0, i64 noundef %1) #5 {
  %3 = alloca ptr, align 8
  %4 = alloca i64, align 8
  store ptr %0, ptr %3, align 8, !tbaa !169
  store i64 %1, ptr %4, align 8, !tbaa !53
  %5 = load i64, ptr %4, align 8, !tbaa !53
  %6 = load ptr, ptr %3, align 8, !tbaa !169
  %7 = getelementptr inbounds nuw %struct.strbuf, ptr %6, i32 0, i32 0
  %8 = load i64, ptr %7, align 8, !tbaa !214
  %9 = icmp ne i64 %8, 0
  br i1 %9, label %10, label %15

10:                                               ; preds = %2
  %11 = load ptr, ptr %3, align 8, !tbaa !169
  %12 = getelementptr inbounds nuw %struct.strbuf, ptr %11, i32 0, i32 0
  %13 = load i64, ptr %12, align 8, !tbaa !214
  %14 = sub i64 %13, 1
  br label %16

15:                                               ; preds = %2
  br label %16

16:                                               ; preds = %15, %10
  %17 = phi i64 [ %14, %10 ], [ 0, %15 ]
  %18 = icmp ugt i64 %5, %17
  br i1 %18, label %19, label %20

19:                                               ; preds = %16
  call void (ptr, i32, ptr, ...) @BUG_fl(ptr noundef @.str.115, i32 noundef 167, ptr noundef @.str.116) #16
  unreachable

20:                                               ; preds = %16
  %21 = load i64, ptr %4, align 8, !tbaa !53
  %22 = load ptr, ptr %3, align 8, !tbaa !169
  %23 = getelementptr inbounds nuw %struct.strbuf, ptr %22, i32 0, i32 1
  store i64 %21, ptr %23, align 8, !tbaa !51
  %24 = load ptr, ptr %3, align 8, !tbaa !169
  %25 = getelementptr inbounds nuw %struct.strbuf, ptr %24, i32 0, i32 2
  %26 = load ptr, ptr %25, align 8, !tbaa !54
  %27 = icmp ne ptr %26, @strbuf_slopbuf
  br i1 %27, label %28, label %34

28:                                               ; preds = %20
  %29 = load ptr, ptr %3, align 8, !tbaa !169
  %30 = getelementptr inbounds nuw %struct.strbuf, ptr %29, i32 0, i32 2
  %31 = load ptr, ptr %30, align 8, !tbaa !54
  %32 = load i64, ptr %4, align 8, !tbaa !53
  %33 = getelementptr inbounds nuw i8, ptr %31, i64 %32
  store i8 0, ptr %33, align 1, !tbaa !44
  br label %35

34:                                               ; preds = %20
  br label %35

35:                                               ; preds = %34, %28
  ret void
}

; Function Attrs: nounwind uwtable
define internal i32 @feed_receive_hook(ptr noundef %0, ptr noundef %1, ptr noundef %2) #0 {
  %4 = alloca i32, align 4
  %5 = alloca ptr, align 8
  %6 = alloca ptr, align 8
  %7 = alloca ptr, align 8
  %8 = alloca ptr, align 8
  %9 = alloca ptr, align 8
  %10 = alloca i32, align 4
  %11 = alloca ptr, align 8
  %12 = alloca ptr, align 8
  %13 = alloca ptr, align 8
  store ptr %0, ptr %5, align 8, !tbaa !45
  store ptr %1, ptr %6, align 8, !tbaa !8
  store ptr %2, ptr %7, align 8, !tbaa !76
  call void @llvm.lifetime.start.p0(i64 8, ptr %8) #15
  %14 = load ptr, ptr %5, align 8, !tbaa !45
  store ptr %14, ptr %8, align 8, !tbaa !242
  call void @llvm.lifetime.start.p0(i64 8, ptr %9) #15
  %15 = load ptr, ptr %8, align 8, !tbaa !242
  %16 = getelementptr inbounds nuw %struct.receive_hook_feed_state, ptr %15, i32 0, i32 0
  %17 = load ptr, ptr %16, align 8, !tbaa !140
  store ptr %17, ptr %9, align 8, !tbaa !29
  br label %18

18:                                               ; preds = %43, %3
  %19 = load ptr, ptr %9, align 8, !tbaa !29
  %20 = icmp ne ptr %19, null
  br i1 %20, label %21, label %41

21:                                               ; preds = %18
  %22 = load ptr, ptr %8, align 8, !tbaa !242
  %23 = getelementptr inbounds nuw %struct.receive_hook_feed_state, ptr %22, i32 0, i32 2
  %24 = load i32, ptr %23, align 8, !tbaa !142
  %25 = icmp ne i32 %24, 0
  br i1 %25, label %26, label %41

26:                                               ; preds = %21
  %27 = load ptr, ptr %9, align 8, !tbaa !29
  %28 = getelementptr inbounds nuw %struct.command, ptr %27, i32 0, i32 1
  %29 = load ptr, ptr %28, align 8, !tbaa !11
  %30 = icmp ne ptr %29, null
  br i1 %30, label %39, label %31

31:                                               ; preds = %26
  %32 = load ptr, ptr %9, align 8, !tbaa !29
  %33 = getelementptr inbounds nuw %struct.command, ptr %32, i32 0, i32 4
  %34 = load i8, ptr %33, align 8
  %35 = lshr i8 %34, 1
  %36 = and i8 %35, 1
  %37 = zext i8 %36 to i32
  %38 = icmp ne i32 %37, 0
  br label %39

39:                                               ; preds = %31, %26
  %40 = phi i1 [ true, %26 ], [ %38, %31 ]
  br label %41

41:                                               ; preds = %39, %21, %18
  %42 = phi i1 [ false, %21 ], [ false, %18 ], [ %40, %39 ]
  br i1 %42, label %43, label %47

43:                                               ; preds = %41
  %44 = load ptr, ptr %9, align 8, !tbaa !29
  %45 = getelementptr inbounds nuw %struct.command, ptr %44, i32 0, i32 0
  %46 = load ptr, ptr %45, align 8, !tbaa !29
  store ptr %46, ptr %9, align 8, !tbaa !29
  br label %18, !llvm.loop !244

47:                                               ; preds = %41
  %48 = load ptr, ptr %9, align 8, !tbaa !29
  %49 = icmp ne ptr %48, null
  br i1 %49, label %51, label %50

50:                                               ; preds = %47
  store i32 -1, ptr %4, align 4
  store i32 1, ptr %10, align 4
  br label %183

51:                                               ; preds = %47
  %52 = load ptr, ptr %6, align 8, !tbaa !8
  %53 = icmp ne ptr %52, null
  br i1 %53, label %55, label %54

54:                                               ; preds = %51
  store i32 0, ptr %4, align 4
  store i32 1, ptr %10, align 4
  br label %183

55:                                               ; preds = %51
  %56 = load ptr, ptr %8, align 8, !tbaa !242
  %57 = getelementptr inbounds nuw %struct.receive_hook_feed_state, ptr %56, i32 0, i32 3
  call void @strbuf_setlen(ptr noundef %57, i64 noundef 0)
  %58 = load ptr, ptr %8, align 8, !tbaa !242
  %59 = getelementptr inbounds nuw %struct.receive_hook_feed_state, ptr %58, i32 0, i32 1
  %60 = load ptr, ptr %59, align 8, !tbaa !143
  %61 = icmp ne ptr %60, null
  br i1 %61, label %68, label %62

62:                                               ; preds = %55
  %63 = load ptr, ptr %9, align 8, !tbaa !29
  %64 = getelementptr inbounds nuw %struct.command, ptr %63, i32 0, i32 3
  %65 = load ptr, ptr %64, align 8, !tbaa !130
  %66 = load ptr, ptr %8, align 8, !tbaa !242
  %67 = getelementptr inbounds nuw %struct.receive_hook_feed_state, ptr %66, i32 0, i32 1
  store ptr %65, ptr %67, align 8, !tbaa !143
  br label %68

68:                                               ; preds = %62, %55
  %69 = load ptr, ptr %8, align 8, !tbaa !242
  %70 = getelementptr inbounds nuw %struct.receive_hook_feed_state, ptr %69, i32 0, i32 1
  %71 = load ptr, ptr %70, align 8, !tbaa !143
  %72 = icmp ne ptr %71, null
  br i1 %72, label %73, label %151

73:                                               ; preds = %68
  call void @llvm.lifetime.start.p0(i64 8, ptr %11) #15
  call void @llvm.lifetime.start.p0(i64 8, ptr %12) #15
  call void @llvm.lifetime.start.p0(i64 8, ptr %13) #15
  %74 = load ptr, ptr %8, align 8, !tbaa !242
  %75 = getelementptr inbounds nuw %struct.receive_hook_feed_state, ptr %74, i32 0, i32 1
  %76 = load ptr, ptr %75, align 8, !tbaa !143
  %77 = getelementptr inbounds nuw %struct.ref_push_report, ptr %76, i32 0, i32 1
  %78 = load ptr, ptr %77, align 8, !tbaa !134
  %79 = icmp ne ptr %78, null
  br i1 %79, label %80, label %86

80:                                               ; preds = %73
  %81 = load ptr, ptr %8, align 8, !tbaa !242
  %82 = getelementptr inbounds nuw %struct.receive_hook_feed_state, ptr %81, i32 0, i32 1
  %83 = load ptr, ptr %82, align 8, !tbaa !143
  %84 = getelementptr inbounds nuw %struct.ref_push_report, ptr %83, i32 0, i32 1
  %85 = load ptr, ptr %84, align 8, !tbaa !134
  br label %89

86:                                               ; preds = %73
  %87 = load ptr, ptr %9, align 8, !tbaa !29
  %88 = getelementptr inbounds nuw %struct.command, ptr %87, i32 0, i32 6
  br label %89

89:                                               ; preds = %86, %80
  %90 = phi ptr [ %85, %80 ], [ %88, %86 ]
  store ptr %90, ptr %11, align 8, !tbaa !166
  %91 = load ptr, ptr %8, align 8, !tbaa !242
  %92 = getelementptr inbounds nuw %struct.receive_hook_feed_state, ptr %91, i32 0, i32 1
  %93 = load ptr, ptr %92, align 8, !tbaa !143
  %94 = getelementptr inbounds nuw %struct.ref_push_report, ptr %93, i32 0, i32 2
  %95 = load ptr, ptr %94, align 8, !tbaa !135
  %96 = icmp ne ptr %95, null
  br i1 %96, label %97, label %103

97:                                               ; preds = %89
  %98 = load ptr, ptr %8, align 8, !tbaa !242
  %99 = getelementptr inbounds nuw %struct.receive_hook_feed_state, ptr %98, i32 0, i32 1
  %100 = load ptr, ptr %99, align 8, !tbaa !143
  %101 = getelementptr inbounds nuw %struct.ref_push_report, ptr %100, i32 0, i32 2
  %102 = load ptr, ptr %101, align 8, !tbaa !135
  br label %106

103:                                              ; preds = %89
  %104 = load ptr, ptr %9, align 8, !tbaa !29
  %105 = getelementptr inbounds nuw %struct.command, ptr %104, i32 0, i32 7
  br label %106

106:                                              ; preds = %103, %97
  %107 = phi ptr [ %102, %97 ], [ %105, %103 ]
  store ptr %107, ptr %12, align 8, !tbaa !166
  %108 = load ptr, ptr %8, align 8, !tbaa !242
  %109 = getelementptr inbounds nuw %struct.receive_hook_feed_state, ptr %108, i32 0, i32 1
  %110 = load ptr, ptr %109, align 8, !tbaa !143
  %111 = getelementptr inbounds nuw %struct.ref_push_report, ptr %110, i32 0, i32 0
  %112 = load ptr, ptr %111, align 8, !tbaa !132
  %113 = icmp ne ptr %112, null
  br i1 %113, label %114, label %120

114:                                              ; preds = %106
  %115 = load ptr, ptr %8, align 8, !tbaa !242
  %116 = getelementptr inbounds nuw %struct.receive_hook_feed_state, ptr %115, i32 0, i32 1
  %117 = load ptr, ptr %116, align 8, !tbaa !143
  %118 = getelementptr inbounds nuw %struct.ref_push_report, ptr %117, i32 0, i32 0
  %119 = load ptr, ptr %118, align 8, !tbaa !132
  br label %124

120:                                              ; preds = %106
  %121 = load ptr, ptr %9, align 8, !tbaa !29
  %122 = getelementptr inbounds nuw %struct.command, ptr %121, i32 0, i32 8
  %123 = getelementptr inbounds [0 x i8], ptr %122, i64 0, i64 0
  br label %124

124:                                              ; preds = %120, %114
  %125 = phi ptr [ %119, %114 ], [ %123, %120 ]
  store ptr %125, ptr %13, align 8, !tbaa !11
  %126 = load ptr, ptr %8, align 8, !tbaa !242
  %127 = getelementptr inbounds nuw %struct.receive_hook_feed_state, ptr %126, i32 0, i32 3
  %128 = load ptr, ptr %11, align 8, !tbaa !166
  %129 = call ptr @oid_to_hex(ptr noundef %128)
  %130 = load ptr, ptr %12, align 8, !tbaa !166
  %131 = call ptr @oid_to_hex(ptr noundef %130)
  %132 = load ptr, ptr %13, align 8, !tbaa !11
  call void (ptr, ptr, ...) @strbuf_addf(ptr noundef %127, ptr noundef @.str.216, ptr noundef %129, ptr noundef %131, ptr noundef %132)
  %133 = load ptr, ptr %8, align 8, !tbaa !242
  %134 = getelementptr inbounds nuw %struct.receive_hook_feed_state, ptr %133, i32 0, i32 1
  %135 = load ptr, ptr %134, align 8, !tbaa !143
  %136 = getelementptr inbounds nuw %struct.ref_push_report, ptr %135, i32 0, i32 4
  %137 = load ptr, ptr %136, align 8, !tbaa !136
  %138 = load ptr, ptr %8, align 8, !tbaa !242
  %139 = getelementptr inbounds nuw %struct.receive_hook_feed_state, ptr %138, i32 0, i32 1
  store ptr %137, ptr %139, align 8, !tbaa !143
  %140 = load ptr, ptr %8, align 8, !tbaa !242
  %141 = getelementptr inbounds nuw %struct.receive_hook_feed_state, ptr %140, i32 0, i32 1
  %142 = load ptr, ptr %141, align 8, !tbaa !143
  %143 = icmp ne ptr %142, null
  br i1 %143, label %150, label %144

144:                                              ; preds = %124
  %145 = load ptr, ptr %9, align 8, !tbaa !29
  %146 = getelementptr inbounds nuw %struct.command, ptr %145, i32 0, i32 0
  %147 = load ptr, ptr %146, align 8, !tbaa !29
  %148 = load ptr, ptr %8, align 8, !tbaa !242
  %149 = getelementptr inbounds nuw %struct.receive_hook_feed_state, ptr %148, i32 0, i32 0
  store ptr %147, ptr %149, align 8, !tbaa !140
  br label %150

150:                                              ; preds = %144, %124
  call void @llvm.lifetime.end.p0(i64 8, ptr %13) #15
  call void @llvm.lifetime.end.p0(i64 8, ptr %12) #15
  call void @llvm.lifetime.end.p0(i64 8, ptr %11) #15
  br label %168

151:                                              ; preds = %68
  %152 = load ptr, ptr %8, align 8, !tbaa !242
  %153 = getelementptr inbounds nuw %struct.receive_hook_feed_state, ptr %152, i32 0, i32 3
  %154 = load ptr, ptr %9, align 8, !tbaa !29
  %155 = getelementptr inbounds nuw %struct.command, ptr %154, i32 0, i32 6
  %156 = call ptr @oid_to_hex(ptr noundef %155)
  %157 = load ptr, ptr %9, align 8, !tbaa !29
  %158 = getelementptr inbounds nuw %struct.command, ptr %157, i32 0, i32 7
  %159 = call ptr @oid_to_hex(ptr noundef %158)
  %160 = load ptr, ptr %9, align 8, !tbaa !29
  %161 = getelementptr inbounds nuw %struct.command, ptr %160, i32 0, i32 8
  %162 = getelementptr inbounds [0 x i8], ptr %161, i64 0, i64 0
  call void (ptr, ptr, ...) @strbuf_addf(ptr noundef %153, ptr noundef @.str.216, ptr noundef %156, ptr noundef %159, ptr noundef %162)
  %163 = load ptr, ptr %9, align 8, !tbaa !29
  %164 = getelementptr inbounds nuw %struct.command, ptr %163, i32 0, i32 0
  %165 = load ptr, ptr %164, align 8, !tbaa !29
  %166 = load ptr, ptr %8, align 8, !tbaa !242
  %167 = getelementptr inbounds nuw %struct.receive_hook_feed_state, ptr %166, i32 0, i32 0
  store ptr %165, ptr %167, align 8, !tbaa !140
  br label %168

168:                                              ; preds = %151, %150
  %169 = load ptr, ptr %6, align 8, !tbaa !8
  %170 = icmp ne ptr %169, null
  br i1 %170, label %171, label %182

171:                                              ; preds = %168
  %172 = load ptr, ptr %8, align 8, !tbaa !242
  %173 = getelementptr inbounds nuw %struct.receive_hook_feed_state, ptr %172, i32 0, i32 3
  %174 = getelementptr inbounds nuw %struct.strbuf, ptr %173, i32 0, i32 2
  %175 = load ptr, ptr %174, align 8, !tbaa !245
  %176 = load ptr, ptr %6, align 8, !tbaa !8
  store ptr %175, ptr %176, align 8, !tbaa !11
  %177 = load ptr, ptr %8, align 8, !tbaa !242
  %178 = getelementptr inbounds nuw %struct.receive_hook_feed_state, ptr %177, i32 0, i32 3
  %179 = getelementptr inbounds nuw %struct.strbuf, ptr %178, i32 0, i32 1
  %180 = load i64, ptr %179, align 8, !tbaa !246
  %181 = load ptr, ptr %7, align 8, !tbaa !76
  store i64 %180, ptr %181, align 8, !tbaa !53
  br label %182

182:                                              ; preds = %171, %168
  store i32 0, ptr %4, align 4
  store i32 1, ptr %10, align 4
  br label %183

183:                                              ; preds = %182, %54, %50
  call void @llvm.lifetime.end.p0(i64 8, ptr %9) #15
  call void @llvm.lifetime.end.p0(i64 8, ptr %8) #15
  %184 = load i32, ptr %4, align 4
  ret i32 %184
}