; Function Attrs: nounwind uwtable
define internal fastcc range(i32 -1, 1) i32 @feed_receive_hook(ptr noundef %0, ptr noundef writeonly %1, ptr noundef writeonly captures(none) %2) unnamed_addr #0 {
  %.04564 = load ptr, ptr %0, align 8, !tbaa !26
  %.not65 = icmp eq ptr %.04564, null
  br i1 %.not65, label %.critedge61, label %.lr.ph

.lr.ph:                                           ; preds = %3
  %4 = getelementptr inbounds nuw i8, ptr %0, i64 16
  %5 = load i32, ptr %4, align 8, !tbaa !158
  %.not51 = icmp eq i32 %5, 0
  br i1 %.not51, label %.critedge, label %.lr.ph.split

.lr.ph.split:                                     ; preds = %.lr.ph, %.critedge2
  %.04566 = phi ptr [ %.045, %.critedge2 ], [ %.04564, %.lr.ph ]
  %6 = getelementptr inbounds nuw i8, ptr %.04566, i64 8
  %7 = load ptr, ptr %6, align 8, !tbaa !21
  %.not52 = icmp eq ptr %7, null
  br i1 %.not52, label %8, label %.critedge2

8:                                                ; preds = %.lr.ph.split
  %9 = getelementptr inbounds nuw i8, ptr %.04566, i64 32
  %10 = load i8, ptr %9, align 8
  %11 = and i8 %10, 2
  %.not53 = icmp eq i8 %11, 0
  br i1 %.not53, label %.critedge, label %.critedge2

.critedge2:                                       ; preds = %.lr.ph.split, %8
  %.045 = load ptr, ptr %.04566, align 8, !tbaa !26
  %.not = icmp eq ptr %.045, null
  br i1 %.not, label %.critedge61, label %.lr.ph.split, !llvm.loop !160

.critedge:                                        ; preds = %8, %.lr.ph
  %.us-phi = phi ptr [ %.04564, %.lr.ph ], [ %.04566, %8 ]
  %.not54 = icmp eq ptr %1, null
  br i1 %.not54, label %.critedge61, label %12

12:                                               ; preds = %.critedge
  %13 = getelementptr inbounds nuw i8, ptr %0, i64 24
  %14 = getelementptr inbounds nuw i8, ptr %0, i64 32
  store i64 0, ptr %14, align 8, !tbaa !56
  %15 = getelementptr inbounds nuw i8, ptr %0, i64 40
  %16 = load ptr, ptr %15, align 8, !tbaa !57
  %.not9.i = icmp eq ptr %16, @strbuf_slopbuf
  br i1 %.not9.i, label %strbuf_setlen.exit, label %17

17:                                               ; preds = %12
  store i8 0, ptr %16, align 1, !tbaa !60
  br label %strbuf_setlen.exit

strbuf_setlen.exit:                               ; preds = %12, %17
  %18 = getelementptr inbounds nuw i8, ptr %0, i64 8
  %19 = load ptr, ptr %18, align 8, !tbaa !159
  %.not55 = icmp eq ptr %19, null
  br i1 %.not55, label %20, label %.thread

20:                                               ; preds = %strbuf_setlen.exit
  %21 = getelementptr inbounds nuw i8, ptr %.us-phi, i64 24
  %22 = load ptr, ptr %21, align 8, !tbaa !129
  store ptr %22, ptr %18, align 8, !tbaa !159
  %.not56 = icmp eq ptr %22, null
  br i1 %.not56, label %40, label %.thread

.thread:                                          ; preds = %strbuf_setlen.exit, %20
  %23 = phi ptr [ %22, %20 ], [ %19, %strbuf_setlen.exit ]
  %24 = getelementptr inbounds nuw i8, ptr %23, i64 8
  %25 = load ptr, ptr %24, align 8, !tbaa !133
  %.not57 = icmp eq ptr %25, null
  %26 = getelementptr inbounds nuw i8, ptr %.us-phi, i64 40
  %27 = select i1 %.not57, ptr %26, ptr %25
  %28 = getelementptr inbounds nuw i8, ptr %23, i64 16
  %29 = load ptr, ptr %28, align 8, !tbaa !134
  %.not58 = icmp eq ptr %29, null
  %30 = getelementptr inbounds nuw i8, ptr %.us-phi, i64 76
  %31 = select i1 %.not58, ptr %30, ptr %29
  %32 = load ptr, ptr %23, align 8, !tbaa !131
  %.not59 = icmp eq ptr %32, null
  %33 = getelementptr inbounds nuw i8, ptr %.us-phi, i64 112
  %34 = select i1 %.not59, ptr %33, ptr %32
  %35 = tail call ptr @oid_to_hex(ptr noundef nonnull %27) #21
  %36 = tail call ptr @oid_to_hex(ptr noundef nonnull %31) #21
  tail call void (ptr, ptr, ...) @strbuf_addf(ptr noundef nonnull %13, ptr noundef nonnull @.str.216, ptr noundef %35, ptr noundef %36, ptr noundef nonnull %34) #21
  %37 = load ptr, ptr %18, align 8, !tbaa !159
  %38 = getelementptr inbounds nuw i8, ptr %37, i64 32
  %39 = load ptr, ptr %38, align 8, !tbaa !197
  store ptr %39, ptr %18, align 8, !tbaa !159
  %.not60 = icmp eq ptr %39, null
  br i1 %.not60, label %.sink.split, label %47

40:                                               ; preds = %20
  %41 = getelementptr inbounds nuw i8, ptr %.us-phi, i64 40
  %42 = tail call ptr @oid_to_hex(ptr noundef nonnull %41) #21
  %43 = getelementptr inbounds nuw i8, ptr %.us-phi, i64 76
  %44 = tail call ptr @oid_to_hex(ptr noundef nonnull %43) #21
  %45 = getelementptr inbounds nuw i8, ptr %.us-phi, i64 112
  tail call void (ptr, ptr, ...) @strbuf_addf(ptr noundef nonnull %13, ptr noundef nonnull @.str.216, ptr noundef %42, ptr noundef %44, ptr noundef nonnull %45) #21
  br label %.sink.split

.sink.split:                                      ; preds = %.thread, %40
  %46 = load ptr, ptr %.us-phi, align 8, !tbaa !26
  store ptr %46, ptr %0, align 8, !tbaa !155
  br label %47

47:                                               ; preds = %.sink.split, %.thread
  %48 = load ptr, ptr %15, align 8, !tbaa !213
  store ptr %48, ptr %1, align 8, !tbaa !21
  %49 = load i64, ptr %14, align 8, !tbaa !214
  store i64 %49, ptr %2, align 8, !tbaa !33
  br label %.critedge61

.critedge61:                                      ; preds = %.critedge2, %3, %.critedge, %47
  %.0 = phi i32 [ 0, %47 ], [ 0, %.critedge ], [ -1, %3 ], [ -1, %.critedge2 ]
  ret i32 %.0
}